target datalayout = "e-m:e-p270:32:32-p271:32:32-p272:64:64-i64:64-i128:128-f80:128-n8:16:32:64-S128"
target triple = "x86_64-pc-linux-gnu"

%"struct.folly::detail::PlatformTFOSettings" = type { i32, i32 }
%class.anon = type { i8 }

@_ZZN5folly6detail25tfo_platform_availabilityEvE11TFOSettings = internal global %"struct.folly::detail::PlatformTFOSettings" zeroinitializer, align 4
@_ZGVZN5folly6detail25tfo_platform_availabilityEvE11TFOSettings = internal global i64 0, align 8

; Function Attrs: mustprogress uwtable
define i64 @_ZN5folly6detail25tfo_platform_availabilityEv() #0 personality ptr @__gxx_personality_v0 {
  %1 = alloca %"struct.folly::detail::PlatformTFOSettings", align 4
  %2 = alloca %class.anon, align 1
  %3 = alloca ptr, align 8
  %4 = alloca i32, align 4
  %5 = load atomic i8, ptr @_ZGVZN5folly6detail25tfo_platform_availabilityEvE11TFOSettings acquire, align 8
  %6 = icmp eq i8 %5, 0
  br i1 %6, label %7, label %13, !prof !19

7:                                                ; preds = %0
  %8 = call i32 @__cxa_guard_acquire(ptr @_ZGVZN5folly6detail25tfo_platform_availabilityEvE11TFOSettings) #5
  %9 = icmp ne i32 %8, 0
  br i1 %9, label %10, label %13

10:                                               ; preds = %7
  call void @llvm.lifetime.start.p0(i64 1, ptr %2) #5
  %11 = invoke i64 @"_ZZN5folly6detail25tfo_platform_availabilityEvENK3$_0clEv"(ptr noundef nonnull align 1 dereferenceable(1) %2)
          to label %12 unwind label %15

12:                                               ; preds = %10
  store i64 %11, ptr @_ZZN5folly6detail25tfo_platform_availabilityEvE11TFOSettings, align 4
  call void @llvm.lifetime.end.p0(i64 1, ptr %2) #5
  call void @__cxa_guard_release(ptr @_ZGVZN5folly6detail25tfo_platform_availabilityEvE11TFOSettings) #5
  br label %13

13:                                               ; preds = %12, %7, %0
  call void @llvm.memcpy.p0.p0.i64(ptr align 4 %1, ptr align 4 @_ZZN5folly6detail25tfo_platform_availabilityEvE11TFOSettings, i64 8, i1 false), !tbaa.struct !20
  %14 = load i64, ptr %1, align 4
  ret i64 %14

15:                                               ; preds = %10
  %16 = landingpad { ptr, i32 }
          cleanup
  %17 = extractvalue { ptr, i32 } %16, 0
  store ptr %17, ptr %3, align 8
  %18 = extractvalue { ptr, i32 } %16, 1
  store i32 %18, ptr %4, align 4
  call void @llvm.lifetime.end.p0(i64 1, ptr %2) #5
  call void @__cxa_guard_abort(ptr @_ZGVZN5folly6detail25tfo_platform_availabilityEvE11TFOSettings) #5
  br label %19

19:                                               ; preds = %15
  %20 = load ptr, ptr %3, align 8
  %21 = load i32, ptr %4, align 4
  %22 = insertvalue { ptr, i32 } poison, ptr %20, 0
  %23 = insertvalue { ptr, i32 } %22, i32 %21, 1
  resume { ptr, i32 } %23
}