; Function Attrs: mustprogress uwtable
define i64 @_ZN5folly6detail25tfo_platform_availabilityEv() local_unnamed_addr #0 personality ptr @__gxx_personality_v0 {
  %1 = load atomic i8, ptr @_ZGVZN5folly6detail25tfo_platform_availabilityEvE11TFOSettings acquire, align 8
  %2 = icmp eq i8 %1, 0
  br i1 %2, label %3, label %8, !prof !13

3:                                                ; preds = %0
  %4 = tail call i32 @__cxa_guard_acquire(ptr nonnull @_ZGVZN5folly6detail25tfo_platform_availabilityEvE11TFOSettings) #9
  %.not = icmp eq i32 %4, 0
  br i1 %.not, label %8, label %5

5:                                                ; preds = %3
  %6 = invoke fastcc i64 @"_ZZN5folly6detail25tfo_platform_availabilityEvENK3$_0clEv"()
          to label %7 unwind label %9

7:                                                ; preds = %5
  store i64 %6, ptr @_ZZN5folly6detail25tfo_platform_availabilityEvE11TFOSettings.0, align 8
  tail call void @__cxa_guard_release(ptr nonnull @_ZGVZN5folly6detail25tfo_platform_availabilityEvE11TFOSettings) #9
  br label %8

8:                                                ; preds = %7, %3, %0
  %.sroa.0.0.copyload = load i64, ptr @_ZZN5folly6detail25tfo_platform_availabilityEvE11TFOSettings.0, align 8
  ret i64 %.sroa.0.0.copyload

9:                                                ; preds = %5
  %10 = landingpad { ptr, i32 }
          cleanup
  tail call void @__cxa_guard_abort(ptr nonnull @_ZGVZN5folly6detail25tfo_platform_availabilityEvE11TFOSettings) #9
  resume { ptr, i32 } %10
}